; Function Attrs: mustprogress nofree nounwind uwtable
define noundef range(i32 -1, 1) i32 @_ZN2cv12ppf_match_3d6Pose3D8readPoseERKNSt7__cxx1112basic_stringIcSt11char_traitsIcESaIcEEE(ptr noundef nonnull align 8 captures(none) dereferenceable(232) %0, ptr noundef nonnull readonly align 8 captures(none) dereferenceable(32) %1) local_unnamed_addr #13 align 2 personality ptr @__gxx_personality_v0 {
  %3 = load ptr, ptr %1, align 8, !tbaa !114
  %4 = tail call noalias ptr @fopen(ptr noundef %3, ptr noundef nonnull @.str.2)
  %.not = icmp eq ptr %4, null
  br i1 %.not, label %8, label %5

5:                                                ; preds = %2
  %6 = tail call noundef i32 @_ZN2cv12ppf_match_3d6Pose3D8readPoseEP8_IO_FILE(ptr noundef nonnull align 8 dereferenceable(232) %0, ptr noundef nonnull %4)
  %7 = tail call i32 @fclose(ptr noundef nonnull %4)
  br label %8

8:                                                ; preds = %2, %5
  %.0 = phi i32 [ %6, %5 ], [ -1, %2 ]
  ret i32 %.0
}